; Function Attrs: mustprogress nofree norecurse nosync nounwind memory(readwrite, inaccessiblemem: none) uwtable
define hidden void @_ZN3sls12bv_valuation23commit_eval_ignore_tabuEv(ptr noundef nonnull readonly align 8 captures(none) dereferenceable(184) %0) local_unnamed_addr #10 align 2 {
  %2 = getelementptr inbounds nuw i8, ptr %0, i64 156
  %3 = load i32, ptr %2, align 4, !tbaa !68
  %.not = icmp eq i32 %3, 0
  br i1 %.not, label %._crit_edge, label %.lr.ph

.lr.ph:                                           ; preds = %1
  %4 = getelementptr inbounds nuw i8, ptr %0, i64 160
  %5 = load ptr, ptr %4, align 8, !tbaa !14
  %6 = load ptr, ptr %0, align 8, !tbaa !14
  br label %7

._crit_edge:                                      ; preds = %7, %1
  ret void

7:                                                ; preds = %.lr.ph, %7
  %indvars.iv = phi i64 [ 0, %.lr.ph ], [ %indvars.iv.next, %7 ]
  %8 = getelementptr inbounds nuw i32, ptr %5, i64 %indvars.iv
  %9 = load i32, ptr %8, align 4, !tbaa !15
  %10 = getelementptr inbounds nuw i32, ptr %6, i64 %indvars.iv
  store i32 %9, ptr %10, align 4, !tbaa !15
  %indvars.iv.next = add nuw nsw i64 %indvars.iv, 1
  %11 = load i32, ptr %2, align 4, !tbaa !68
  %12 = zext i32 %11 to i64
  %13 = icmp samesign ult i64 %indvars.iv.next, %12
  br i1 %13, label %7, label %._crit_edge, !llvm.loop !72
}